; Function Attrs: mustprogress uwtable
define noundef nonnull align 8 dereferenceable(16) ptr @_ZN2cv4gapi2ov8PyParams7cfgMeanESt6vectorIfSaIfEE(ptr noundef nonnull readonly returned align 8 dereferenceable(16) %0, ptr noundef captures(none) %1) local_unnamed_addr #3 align 2 personality ptr @__gxx_personality_v0 {
  %3 = alloca %"class.std::vector.26", align 8
  %4 = load ptr, ptr %0, align 8, !tbaa !6
  %5 = load ptr, ptr %1, align 8, !tbaa !86
  store ptr %5, ptr %3, align 8, !tbaa !86
  %6 = getelementptr inbounds nuw i8, ptr %3, i64 8
  %7 = getelementptr inbounds nuw i8, ptr %1, i64 8
  %8 = load ptr, ptr %7, align 8, !tbaa !89
  store ptr %8, ptr %6, align 8, !tbaa !89
  %9 = getelementptr inbounds nuw i8, ptr %3, i64 16
  %10 = getelementptr inbounds nuw i8, ptr %1, i64 16
  %11 = load ptr, ptr %10, align 8, !tbaa !90
  store ptr %11, ptr %9, align 8, !tbaa !90
  tail call void @llvm.memset.p0.i64(ptr noundef nonnull align 8 dereferenceable(24) %1, i8 0, i64 24, i1 false)
  %12 = invoke noundef nonnull align 8 dereferenceable(768) ptr @_ZN2cv4gapi2ov6ParamsINS0_7GenericEE7cfgMeanESt6vectorIfSaIfEE(ptr noundef nonnull align 8 dereferenceable(768) %4, ptr noundef nonnull %3)
          to label %13 unwind label %16

13:                                               ; preds = %2
  %14 = load ptr, ptr %3, align 8, !tbaa !86
  %.not.i.i.i = icmp eq ptr %14, null
  br i1 %.not.i.i.i, label %_ZNSt6vectorIfSaIfEED2Ev.exit, label %15

15:                                               ; preds = %13
  call void @_ZdlPv(ptr noundef nonnull %14) #22
  br label %_ZNSt6vectorIfSaIfEED2Ev.exit

_ZNSt6vectorIfSaIfEED2Ev.exit:                    ; preds = %13, %15
  ret ptr %0

16:                                               ; preds = %2
  %17 = landingpad { ptr, i32 }
          cleanup
  %18 = load ptr, ptr %3, align 8, !tbaa !86
  %.not.i.i.i2 = icmp eq ptr %18, null
  br i1 %.not.i.i.i2, label %_ZNSt6vectorIfSaIfEED2Ev.exit3, label %19

19:                                               ; preds = %16
  call void @_ZdlPv(ptr noundef nonnull %18) #22
  br label %_ZNSt6vectorIfSaIfEED2Ev.exit3

_ZNSt6vectorIfSaIfEED2Ev.exit3:                   ; preds = %16, %19
  resume { ptr, i32 } %17
}